target datalayout = "e-m:e-p270:32:32-p271:32:32-p272:64:64-i64:64-i128:128-f80:128-n8:16:32:64-S128"
target triple = "x86_64-pc-linux-gnu"

%struct.slurm_step_ctx_struct = type { i16, i32, ptr, ptr, ptr, i16 }

; Function Attrs: nounwind uwtable
define dso_local i32 @step_ctx_destroy(ptr noundef %0) #0 {
  %2 = alloca i32, align 4
  %3 = alloca ptr, align 8
  store ptr %0, ptr %3, align 8
  %4 = load ptr, ptr %3, align 8
  %5 = icmp eq ptr %4, null
  br i1 %5, label %12, label %6

6:                                                ; preds = %1
  %7 = load ptr, ptr %3, align 8
  %8 = getelementptr inbounds nuw %struct.slurm_step_ctx_struct, ptr %7, i32 0, i32 0
  %9 = load i16, ptr %8, align 8
  %10 = zext i16 %9 to i32
  %11 = icmp ne i32 %10, 51107
  br i1 %11, label %12, label %14

12:                                               ; preds = %6, %1
  %13 = call ptr @__errno_location() #8
  store i32 22, ptr %13, align 4
  store i32 -1, ptr %2, align 4
  br label %24

14:                                               ; preds = %6
  %15 = load ptr, ptr %3, align 8
  %16 = getelementptr inbounds nuw %struct.slurm_step_ctx_struct, ptr %15, i32 0, i32 2
  %17 = load ptr, ptr %16, align 8
  call void @slurm_free_job_step_create_request_msg(ptr noundef %17)
  %18 = load ptr, ptr %3, align 8
  %19 = getelementptr inbounds nuw %struct.slurm_step_ctx_struct, ptr %18, i32 0, i32 3
  %20 = load ptr, ptr %19, align 8
  call void @slurm_free_job_step_create_response_msg(ptr noundef %20)
  %21 = load ptr, ptr %3, align 8
  %22 = getelementptr inbounds nuw %struct.slurm_step_ctx_struct, ptr %21, i32 0, i32 4
  %23 = load ptr, ptr %22, align 8
  call void @step_launch_state_destroy(ptr noundef %23)
  call void @slurm_xfree(ptr noundef %3)
  store i32 0, ptr %2, align 4
  br label %24

24:                                               ; preds = %14, %12
  %25 = load i32, ptr %2, align 4
  ret i32 %25
}