; Function Attrs: nounwind uwtable
define dso_local range(i32 -1, 1) i32 @step_ctx_destroy(ptr noundef %0) local_unnamed_addr #0 {
  %2 = alloca ptr, align 8
  store ptr %0, ptr %2, align 8
  %3 = icmp eq ptr %0, null
  br i1 %3, label %6, label %4

4:                                                ; preds = %1
  %5 = load i16, ptr %0, align 8
  %.not = icmp eq i16 %5, -14429
  br i1 %.not, label %8, label %6

6:                                                ; preds = %4, %1
  %7 = tail call ptr @__errno_location() #9
  store i32 22, ptr %7, align 4
  br label %15

8:                                                ; preds = %4
  %9 = getelementptr inbounds nuw i8, ptr %0, i64 8
  %10 = load ptr, ptr %9, align 8
  tail call void @slurm_free_job_step_create_request_msg(ptr noundef %10) #8
  %11 = getelementptr inbounds nuw i8, ptr %0, i64 16
  %12 = load ptr, ptr %11, align 8
  tail call void @slurm_free_job_step_create_response_msg(ptr noundef %12) #8
  %13 = getelementptr inbounds nuw i8, ptr %0, i64 24
  %14 = load ptr, ptr %13, align 8
  tail call void @step_launch_state_destroy(ptr noundef %14) #8
  call void @slurm_xfree(ptr noundef nonnull %2) #8
  br label %15

15:                                               ; preds = %8, %6
  %.0 = phi i32 [ -1, %6 ], [ 0, %8 ]
  ret i32 %.0
}